target datalayout = "e-m:e-p270:32:32-p271:32:32-p272:64:64-i64:64-i128:128-f80:128-n8:16:32:64-S128"
target triple = "x86_64-unknown-linux-gnu"

%"class.std::__cxx11::basic_string" = type { %"struct.std::__cxx11::basic_string<char>::_Alloc_hider", i64, %union.anon }
%"struct.std::__cxx11::basic_string<char>::_Alloc_hider" = type { ptr }
%union.anon = type { i64, [8 x i8] }
%"class.Assimp::MD3Importer" = type { %"class.Assimp::BaseImporter", i32, i8, %"class.std::__cxx11::basic_string", i8, %"class.std::__cxx11::basic_string", i8, ptr, ptr, i32, %"class.std::__cxx11::basic_string", %"class.std::__cxx11::basic_string", %"class.std::__cxx11::basic_string", ptr, ptr }
%"class.Assimp::BaseImporter" = type { ptr, double, double, %"class.std::__cxx11::basic_string", %"class.std::__exception_ptr::exception_ptr", ptr }
%"class.std::__exception_ptr::exception_ptr" = type { ptr }
%"struct.Assimp::MD3::Header" = type { i32, i32, [64 x i8], i32, i32, i32, i32, i32, i32, i32, i32, i32 }

@.str.34 = private unnamed_addr constant [5 x i8] c"IDP3\00", align 1
@.str.35 = private unnamed_addr constant [5 x i8] c"3PDI\00", align 1
@.str.36 = private unnamed_addr constant [40 x i8] c"Invalid MD3 file: Magic bytes not found\00", align 1
@_ZTI17DeadlyImportError = linkonce_odr constant { ptr, ptr, ptr } { ptr getelementptr inbounds (ptr, ptr @_ZTVN10__cxxabiv120__si_class_type_infoE, i64 2), ptr @_ZTS17DeadlyImportError, ptr @_ZTI15DeadlyErrorBase }, comdat, align 8
@.str.37 = private unnamed_addr constant [53 x i8] c"Unsupported MD3 file version. Continuing happily ...\00", align 1
@.str.38 = private unnamed_addr constant [36 x i8] c"Invalid md3 file: NUM_SURFACES is 0\00", align 1
@.str.39 = private unnamed_addr constant [54 x i8] c"Invalid MD3 header: some offsets are outside the file\00", align 1
@.str.40 = private unnamed_addr constant [54 x i8] c"Invalid MD3 header: too many surfaces, would overflow\00", align 1
@.str.41 = private unnamed_addr constant [55 x i8] c"Invalid MD3 header: some surfaces are outside the file\00", align 1
@.str.42 = private unnamed_addr constant [45 x i8] c"The requested frame is not existing the file\00", align 1

; Function Attrs: mustprogress uwtable
define hidden void @_ZN6Assimp11MD3Importer21ValidateHeaderOffsetsEv(ptr noundef nonnull align 8 dereferenceable(296) %this) #2 align 2 personality ptr @__gxx_personality_v0 {
entry:
  %this.addr = alloca ptr, align 8
  %exn.slot = alloca ptr, align 8
  %ehselector.slot = alloca i32, align 4
  store ptr %this, ptr %this.addr, align 8
  %this1 = load ptr, ptr %this.addr, align 8
  %pcHeader = getelementptr inbounds %"class.Assimp::MD3Importer", ptr %this1, i32 0, i32 7
  %0 = load ptr, ptr %pcHeader, align 8
  %IDENT = getelementptr inbounds %"struct.Assimp::MD3::Header", ptr %0, i32 0, i32 0
  %1 = load i32, ptr %IDENT, align 1
  %2 = load i8, ptr @.str.34, align 1
  %conv = sext i8 %2 to i32
  %shl = shl i32 %conv, 24
  %3 = load i8, ptr getelementptr inbounds ([5 x i8], ptr @.str.34, i64 0, i64 1), align 1
  %conv2 = sext i8 %3 to i32
  %shl3 = shl i32 %conv2, 16
  %add = add nsw i32 %shl, %shl3
  %4 = load i8, ptr getelementptr inbounds ([5 x i8], ptr @.str.34, i64 0, i64 2), align 1
  %conv4 = sext i8 %4 to i32
  %shl5 = shl i32 %conv4, 8
  %add6 = add nsw i32 %add, %shl5
  %5 = load i8, ptr getelementptr inbounds ([5 x i8], ptr @.str.34, i64 0, i64 3), align 1
  %conv7 = sext i8 %5 to i32
  %add8 = add nsw i32 %add6, %conv7
  %cmp = icmp ne i32 %1, %add8
  br i1 %cmp, label %land.lhs.true, label %if.end

land.lhs.true:                                    ; preds = %entry
  %pcHeader9 = getelementptr inbounds %"class.Assimp::MD3Importer", ptr %this1, i32 0, i32 7
  %6 = load ptr, ptr %pcHeader9, align 8
  %IDENT10 = getelementptr inbounds %"struct.Assimp::MD3::Header", ptr %6, i32 0, i32 0
  %7 = load i32, ptr %IDENT10, align 1
  %8 = load i8, ptr @.str.35, align 1
  %conv11 = sext i8 %8 to i32
  %shl12 = shl i32 %conv11, 24
  %9 = load i8, ptr getelementptr inbounds ([5 x i8], ptr @.str.35, i64 0, i64 1), align 1
  %conv13 = sext i8 %9 to i32
  %shl14 = shl i32 %conv13, 16
  %add15 = add nsw i32 %shl12, %shl14
  %10 = load i8, ptr getelementptr inbounds ([5 x i8], ptr @.str.35, i64 0, i64 2), align 1
  %conv16 = sext i8 %10 to i32
  %shl17 = shl i32 %conv16, 8
  %add18 = add nsw i32 %add15, %shl17
  %11 = load i8, ptr getelementptr inbounds ([5 x i8], ptr @.str.35, i64 0, i64 3), align 1
  %conv19 = sext i8 %11 to i32
  %add20 = add nsw i32 %add18, %conv19
  %cmp21 = icmp ne i32 %7, %add20
  br i1 %cmp21, label %if.then, label %if.end

if.then:                                          ; preds = %land.lhs.true
  %exception = call ptr @__cxa_allocate_exception(i64 16) #14
  invoke void @_ZN17DeadlyImportErrorC2EPKc(ptr noundef nonnull align 8 dereferenceable(16) %exception, ptr noundef @.str.36)
          to label %invoke.cont unwind label %lpad

invoke.cont:                                      ; preds = %if.then
  call void @__cxa_throw(ptr %exception, ptr @_ZTI17DeadlyImportError, ptr @_ZN17DeadlyImportErrorD2Ev) #15
  unreachable

lpad:                                             ; preds = %if.then
  %12 = landingpad { ptr, i32 }
          cleanup
  %13 = extractvalue { ptr, i32 } %12, 0
  store ptr %13, ptr %exn.slot, align 8
  %14 = extractvalue { ptr, i32 } %12, 1
  store i32 %14, ptr %ehselector.slot, align 4
  call void @__cxa_free_exception(ptr %exception) #14
  br label %eh.resume

if.end:                                           ; preds = %land.lhs.true, %entry
  %pcHeader22 = getelementptr inbounds %"class.Assimp::MD3Importer", ptr %this1, i32 0, i32 7
  %15 = load ptr, ptr %pcHeader22, align 8
  %VERSION = getelementptr inbounds %"struct.Assimp::MD3::Header", ptr %15, i32 0, i32 1
  %16 = load i32, ptr %VERSION, align 1
  %cmp23 = icmp ugt i32 %16, 15
  br i1 %cmp23, label %if.then24, label %if.end25

if.then24:                                        ; preds = %if.end
  %call = call noundef ptr @_ZN6Assimp13DefaultLogger3getEv()
  call void @_ZN6Assimp6Logger4warnEPKc(ptr noundef nonnull align 8 dereferenceable(12) %call, ptr noundef @.str.37)
  br label %if.end25

if.end25:                                         ; preds = %if.then24, %if.end
  %pcHeader26 = getelementptr inbounds %"class.Assimp::MD3Importer", ptr %this1, i32 0, i32 7
  %17 = load ptr, ptr %pcHeader26, align 8
  %NUM_SURFACES = getelementptr inbounds %"struct.Assimp::MD3::Header", ptr %17, i32 0, i32 6
  %18 = load i32, ptr %NUM_SURFACES, align 1
  %tobool = icmp ne i32 %18, 0
  br i1 %tobool, label %if.end31, label %if.then27

if.then27:                                        ; preds = %if.end25
  %exception28 = call ptr @__cxa_allocate_exception(i64 16) #14
  invoke void @_ZN17DeadlyImportErrorC2EPKc(ptr noundef nonnull align 8 dereferenceable(16) %exception28, ptr noundef @.str.38)
          to label %invoke.cont30 unwind label %lpad29

invoke.cont30:                                    ; preds = %if.then27
  call void @__cxa_throw(ptr %exception28, ptr @_ZTI17DeadlyImportError, ptr @_ZN17DeadlyImportErrorD2Ev) #15
  unreachable

lpad29:                                           ; preds = %if.then27
  %19 = landingpad { ptr, i32 }
          cleanup
  %20 = extractvalue { ptr, i32 } %19, 0
  store ptr %20, ptr %exn.slot, align 8
  %21 = extractvalue { ptr, i32 } %19, 1
  store i32 %21, ptr %ehselector.slot, align 4
  call void @__cxa_free_exception(ptr %exception28) #14
  br label %eh.resume

if.end31:                                         ; preds = %if.end25
  %pcHeader32 = getelementptr inbounds %"class.Assimp::MD3Importer", ptr %this1, i32 0, i32 7
  %22 = load ptr, ptr %pcHeader32, align 8
  %OFS_FRAMES = getelementptr inbounds %"struct.Assimp::MD3::Header", ptr %22, i32 0, i32 8
  %23 = load i32, ptr %OFS_FRAMES, align 1
  %fileSize = getelementptr inbounds %"class.Assimp::MD3Importer", ptr %this1, i32 0, i32 9
  %24 = load i32, ptr %fileSize, align 8
  %cmp33 = icmp uge i32 %23, %24
  br i1 %cmp33, label %if.then41, label %lor.lhs.false

lor.lhs.false:                                    ; preds = %if.end31
  %pcHeader34 = getelementptr inbounds %"class.Assimp::MD3Importer", ptr %this1, i32 0, i32 7
  %25 = load ptr, ptr %pcHeader34, align 8
  %OFS_SURFACES = getelementptr inbounds %"struct.Assimp::MD3::Header", ptr %25, i32 0, i32 10
  %26 = load i32, ptr %OFS_SURFACES, align 1
  %fileSize35 = getelementptr inbounds %"class.Assimp::MD3Importer", ptr %this1, i32 0, i32 9
  %27 = load i32, ptr %fileSize35, align 8
  %cmp36 = icmp uge i32 %26, %27
  br i1 %cmp36, label %if.then41, label %lor.lhs.false37

lor.lhs.false37:                                  ; preds = %lor.lhs.false
  %pcHeader38 = getelementptr inbounds %"class.Assimp::MD3Importer", ptr %this1, i32 0, i32 7
  %28 = load ptr, ptr %pcHeader38, align 8
  %OFS_EOF = getelementptr inbounds %"struct.Assimp::MD3::Header", ptr %28, i32 0, i32 11
  %29 = load i32, ptr %OFS_EOF, align 1
  %fileSize39 = getelementptr inbounds %"class.Assimp::MD3Importer", ptr %this1, i32 0, i32 9
  %30 = load i32, ptr %fileSize39, align 8
  %cmp40 = icmp ugt i32 %29, %30
  br i1 %cmp40, label %if.then41, label %if.end45

if.then41:                                        ; preds = %lor.lhs.false37, %lor.lhs.false, %if.end31
  %exception42 = call ptr @__cxa_allocate_exception(i64 16) #14
  invoke void @_ZN17DeadlyImportErrorC2EPKc(ptr noundef nonnull align 8 dereferenceable(16) %exception42, ptr noundef @.str.39)
          to label %invoke.cont44 unwind label %lpad43

invoke.cont44:                                    ; preds = %if.then41
  call void @__cxa_throw(ptr %exception42, ptr @_ZTI17DeadlyImportError, ptr @_ZN17DeadlyImportErrorD2Ev) #15
  unreachable

lpad43:                                           ; preds = %if.then41
  %31 = landingpad { ptr, i32 }
          cleanup
  %32 = extractvalue { ptr, i32 } %31, 0
  store ptr %32, ptr %exn.slot, align 8
  %33 = extractvalue { ptr, i32 } %31, 1
  store i32 %33, ptr %ehselector.slot, align 4
  call void @__cxa_free_exception(ptr %exception42) #14
  br label %eh.resume

if.end45:                                         ; preds = %lor.lhs.false37
  %pcHeader46 = getelementptr inbounds %"class.Assimp::MD3Importer", ptr %this1, i32 0, i32 7
  %34 = load ptr, ptr %pcHeader46, align 8
  %NUM_SURFACES47 = getelementptr inbounds %"struct.Assimp::MD3::Header", ptr %34, i32 0, i32 6
  %35 = load i32, ptr %NUM_SURFACES47, align 1
  %conv48 = zext i32 %35 to i64
  %cmp49 = icmp ugt i64 %conv48, 2485513
  br i1 %cmp49, label %if.then50, label %if.end54

if.then50:                                        ; preds = %if.end45
  %exception51 = call ptr @__cxa_allocate_exception(i64 16) #14
  invoke void @_ZN17DeadlyImportErrorC2EPKc(ptr noundef nonnull align 8 dereferenceable(16) %exception51, ptr noundef @.str.40)
          to label %invoke.cont53 unwind label %lpad52

invoke.cont53:                                    ; preds = %if.then50
  call void @__cxa_throw(ptr %exception51, ptr @_ZTI17DeadlyImportError, ptr @_ZN17DeadlyImportErrorD2Ev) #15
  unreachable

lpad52:                                           ; preds = %if.then50
  %36 = landingpad { ptr, i32 }
          cleanup
  %37 = extractvalue { ptr, i32 } %36, 0
  store ptr %37, ptr %exn.slot, align 8
  %38 = extractvalue { ptr, i32 } %36, 1
  store i32 %38, ptr %ehselector.slot, align 4
  call void @__cxa_free_exception(ptr %exception51) #14
  br label %eh.resume

if.end54:                                         ; preds = %if.end45
  %pcHeader55 = getelementptr inbounds %"class.Assimp::MD3Importer", ptr %this1, i32 0, i32 7
  %39 = load ptr, ptr %pcHeader55, align 8
  %OFS_SURFACES56 = getelementptr inbounds %"struct.Assimp::MD3::Header", ptr %39, i32 0, i32 10
  %40 = load i32, ptr %OFS_SURFACES56, align 1
  %conv57 = zext i32 %40 to i64
  %pcHeader58 = getelementptr inbounds %"class.Assimp::MD3Importer", ptr %this1, i32 0, i32 7
  %41 = load ptr, ptr %pcHeader58, align 8
  %NUM_SURFACES59 = getelementptr inbounds %"struct.Assimp::MD3::Header", ptr %41, i32 0, i32 6
  %42 = load i32, ptr %NUM_SURFACES59, align 1
  %conv60 = zext i32 %42 to i64
  %mul = mul i64 %conv60, 108
  %add61 = add i64 %conv57, %mul
  %fileSize62 = getelementptr inbounds %"class.Assimp::MD3Importer", ptr %this1, i32 0, i32 9
  %43 = load i32, ptr %fileSize62, align 8
  %conv63 = zext i32 %43 to i64
  %cmp64 = icmp uge i64 %add61, %conv63
  br i1 %cmp64, label %if.then65, label %if.end69

if.then65:                                        ; preds = %if.end54
  %exception66 = call ptr @__cxa_allocate_exception(i64 16) #14
  invoke void @_ZN17DeadlyImportErrorC2EPKc(ptr noundef nonnull align 8 dereferenceable(16) %exception66, ptr noundef @.str.41)
          to label %invoke.cont68 unwind label %lpad67

invoke.cont68:                                    ; preds = %if.then65
  call void @__cxa_throw(ptr %exception66, ptr @_ZTI17DeadlyImportError, ptr @_ZN17DeadlyImportErrorD2Ev) #15
  unreachable

lpad67:                                           ; preds = %if.then65
  %44 = landingpad { ptr, i32 }
          cleanup
  %45 = extractvalue { ptr, i32 } %44, 0
  store ptr %45, ptr %exn.slot, align 8
  %46 = extractvalue { ptr, i32 } %44, 1
  store i32 %46, ptr %ehselector.slot, align 4
  call void @__cxa_free_exception(ptr %exception66) #14
  br label %eh.resume

if.end69:                                         ; preds = %if.end54
  %pcHeader70 = getelementptr inbounds %"class.Assimp::MD3Importer", ptr %this1, i32 0, i32 7
  %47 = load ptr, ptr %pcHeader70, align 8
  %NUM_FRAMES = getelementptr inbounds %"struct.Assimp::MD3::Header", ptr %47, i32 0, i32 4
  %48 = load i32, ptr %NUM_FRAMES, align 1
  %configFrameID = getelementptr inbounds %"class.Assimp::MD3Importer", ptr %this1, i32 0, i32 1
  %49 = load i32, ptr %configFrameID, align 8
  %cmp71 = icmp ule i32 %48, %49
  br i1 %cmp71, label %if.then72, label %if.end76

if.then72:                                        ; preds = %if.end69
  %exception73 = call ptr @__cxa_allocate_exception(i64 16) #14
  invoke void @_ZN17DeadlyImportErrorC2EPKc(ptr noundef nonnull align 8 dereferenceable(16) %exception73, ptr noundef @.str.42)
          to label %invoke.cont75 unwind label %lpad74

invoke.cont75:                                    ; preds = %if.then72
  call void @__cxa_throw(ptr %exception73, ptr @_ZTI17DeadlyImportError, ptr @_ZN17DeadlyImportErrorD2Ev) #15
  unreachable

lpad74:                                           ; preds = %if.then72
  %50 = landingpad { ptr, i32 }
          cleanup
  %51 = extractvalue { ptr, i32 } %50, 0
  store ptr %51, ptr %exn.slot, align 8
  %52 = extractvalue { ptr, i32 } %50, 1
  store i32 %52, ptr %ehselector.slot, align 4
  call void @__cxa_free_exception(ptr %exception73) #14
  br label %eh.resume

if.end76:                                         ; preds = %if.end69
  ret void

eh.resume:                                        ; preds = %lpad74, %lpad67, %lpad52, %lpad43, %lpad29, %lpad
  %exn = load ptr, ptr %exn.slot, align 8
  %sel = load i32, ptr %ehselector.slot, align 4
  %lpad.val = insertvalue { ptr, i32 } poison, ptr %exn, 0
  %lpad.val77 = insertvalue { ptr, i32 } %lpad.val, i32 %sel, 1
  resume { ptr, i32 } %lpad.val77
}