; Function Attrs: mustprogress uwtable
define hidden void @_ZN6Assimp11MD3Importer21ValidateHeaderOffsetsEv(ptr nocapture noundef nonnull readonly align 8 dereferenceable(296) %this) local_unnamed_addr #0 align 2 personality ptr @__gxx_personality_v0 {
entry:
  %pcHeader = getelementptr inbounds i8, ptr %this, i64 160
  %0 = load ptr, ptr %pcHeader, align 8
  %1 = load i32, ptr %0, align 1
  switch i32 %1, label %if.then [
    i32 1229213747, label %if.end
    i32 860898377, label %if.end
  ]

if.then:                                          ; preds = %entry
  %exception = tail call ptr @__cxa_allocate_exception(i64 16) #17
  invoke void @_ZN17DeadlyImportErrorC2EPKc(ptr noundef nonnull align 8 dereferenceable(16) %exception, ptr noundef nonnull @.str.36)
          to label %invoke.cont unwind label %lpad

invoke.cont:                                      ; preds = %if.then
  tail call void @__cxa_throw(ptr nonnull %exception, ptr nonnull @_ZTI17DeadlyImportError, ptr nonnull @_ZN17DeadlyImportErrorD2Ev) #21
  unreachable

lpad:                                             ; preds = %if.then
  %2 = landingpad { ptr, i32 }
          cleanup
  br label %eh.resume

if.end:                                           ; preds = %entry, %entry
  %VERSION = getelementptr inbounds i8, ptr %0, i64 4
  %3 = load i32, ptr %VERSION, align 1
  %cmp23 = icmp ugt i32 %3, 15
  br i1 %cmp23, label %if.then24, label %if.end25

if.then24:                                        ; preds = %if.end
  %call = tail call noundef ptr @_ZN6Assimp13DefaultLogger3getEv()
  tail call void @_ZN6Assimp6Logger4warnEPKc(ptr noundef nonnull align 8 dereferenceable(12) %call, ptr noundef nonnull @.str.37)
  %.pre = load ptr, ptr %pcHeader, align 8
  br label %if.end25

if.end25:                                         ; preds = %if.then24, %if.end
  %4 = phi ptr [ %.pre, %if.then24 ], [ %0, %if.end ]
  %NUM_SURFACES = getelementptr inbounds i8, ptr %4, i64 84
  %5 = load i32, ptr %NUM_SURFACES, align 1
  %tobool.not = icmp eq i32 %5, 0
  br i1 %tobool.not, label %if.then27, label %if.end31

if.then27:                                        ; preds = %if.end25
  %exception28 = tail call ptr @__cxa_allocate_exception(i64 16) #17
  invoke void @_ZN17DeadlyImportErrorC2EPKc(ptr noundef nonnull align 8 dereferenceable(16) %exception28, ptr noundef nonnull @.str.38)
          to label %invoke.cont30 unwind label %lpad29

invoke.cont30:                                    ; preds = %if.then27
  tail call void @__cxa_throw(ptr nonnull %exception28, ptr nonnull @_ZTI17DeadlyImportError, ptr nonnull @_ZN17DeadlyImportErrorD2Ev) #21
  unreachable

lpad29:                                           ; preds = %if.then27
  %6 = landingpad { ptr, i32 }
          cleanup
  br label %eh.resume

if.end31:                                         ; preds = %if.end25
  %OFS_FRAMES = getelementptr inbounds i8, ptr %4, i64 92
  %7 = load i32, ptr %OFS_FRAMES, align 1
  %fileSize = getelementptr inbounds i8, ptr %this, i64 176
  %8 = load i32, ptr %fileSize, align 8
  %cmp33.not = icmp ult i32 %7, %8
  br i1 %cmp33.not, label %lor.lhs.false, label %if.then41

lor.lhs.false:                                    ; preds = %if.end31
  %OFS_SURFACES = getelementptr inbounds i8, ptr %4, i64 100
  %9 = load i32, ptr %OFS_SURFACES, align 1
  %cmp36.not = icmp ult i32 %9, %8
  br i1 %cmp36.not, label %lor.lhs.false37, label %if.then41

lor.lhs.false37:                                  ; preds = %lor.lhs.false
  %OFS_EOF = getelementptr inbounds i8, ptr %4, i64 104
  %10 = load i32, ptr %OFS_EOF, align 1
  %cmp40 = icmp ugt i32 %10, %8
  br i1 %cmp40, label %if.then41, label %if.end45

if.then41:                                        ; preds = %lor.lhs.false37, %lor.lhs.false, %if.end31
  %exception42 = tail call ptr @__cxa_allocate_exception(i64 16) #17
  invoke void @_ZN17DeadlyImportErrorC2EPKc(ptr noundef nonnull align 8 dereferenceable(16) %exception42, ptr noundef nonnull @.str.39)
          to label %invoke.cont44 unwind label %lpad43

invoke.cont44:                                    ; preds = %if.then41
  tail call void @__cxa_throw(ptr nonnull %exception42, ptr nonnull @_ZTI17DeadlyImportError, ptr nonnull @_ZN17DeadlyImportErrorD2Ev) #21
  unreachable

lpad43:                                           ; preds = %if.then41
  %11 = landingpad { ptr, i32 }
          cleanup
  br label %eh.resume

if.end45:                                         ; preds = %lor.lhs.false37
  %cmp49 = icmp ugt i32 %5, 2485513
  br i1 %cmp49, label %if.then50, label %if.end54

if.then50:                                        ; preds = %if.end45
  %exception51 = tail call ptr @__cxa_allocate_exception(i64 16) #17
  invoke void @_ZN17DeadlyImportErrorC2EPKc(ptr noundef nonnull align 8 dereferenceable(16) %exception51, ptr noundef nonnull @.str.40)
          to label %invoke.cont53 unwind label %lpad52

invoke.cont53:                                    ; preds = %if.then50
  tail call void @__cxa_throw(ptr nonnull %exception51, ptr nonnull @_ZTI17DeadlyImportError, ptr nonnull @_ZN17DeadlyImportErrorD2Ev) #21
  unreachable

lpad52:                                           ; preds = %if.then50
  %12 = landingpad { ptr, i32 }
          cleanup
  br label %eh.resume

if.end54:                                         ; preds = %if.end45
  %conv57 = zext i32 %9 to i64
  %narrow = mul nuw nsw i32 %5, 108
  %mul = zext nneg i32 %narrow to i64
  %add61 = add nuw nsw i64 %conv57, %mul
  %conv63 = zext i32 %8 to i64
  %cmp64.not = icmp ult i64 %add61, %conv63
  br i1 %cmp64.not, label %if.end69, label %if.then65

if.then65:                                        ; preds = %if.end54
  %exception66 = tail call ptr @__cxa_allocate_exception(i64 16) #17
  invoke void @_ZN17DeadlyImportErrorC2EPKc(ptr noundef nonnull align 8 dereferenceable(16) %exception66, ptr noundef nonnull @.str.41)
          to label %invoke.cont68 unwind label %lpad67

invoke.cont68:                                    ; preds = %if.then65
  tail call void @__cxa_throw(ptr nonnull %exception66, ptr nonnull @_ZTI17DeadlyImportError, ptr nonnull @_ZN17DeadlyImportErrorD2Ev) #21
  unreachable

lpad67:                                           ; preds = %if.then65
  %13 = landingpad { ptr, i32 }
          cleanup
  br label %eh.resume

if.end69:                                         ; preds = %if.end54
  %NUM_FRAMES = getelementptr inbounds i8, ptr %4, i64 76
  %14 = load i32, ptr %NUM_FRAMES, align 1
  %configFrameID = getelementptr inbounds i8, ptr %this, i64 72
  %15 = load i32, ptr %configFrameID, align 8
  %cmp71.not = icmp ugt i32 %14, %15
  br i1 %cmp71.not, label %if.end76, label %if.then72

if.then72:                                        ; preds = %if.end69
  %exception73 = tail call ptr @__cxa_allocate_exception(i64 16) #17
  invoke void @_ZN17DeadlyImportErrorC2EPKc(ptr noundef nonnull align 8 dereferenceable(16) %exception73, ptr noundef nonnull @.str.42)
          to label %invoke.cont75 unwind label %lpad74

invoke.cont75:                                    ; preds = %if.then72
  tail call void @__cxa_throw(ptr nonnull %exception73, ptr nonnull @_ZTI17DeadlyImportError, ptr nonnull @_ZN17DeadlyImportErrorD2Ev) #21
  unreachable

lpad74:                                           ; preds = %if.then72
  %16 = landingpad { ptr, i32 }
          cleanup
  br label %eh.resume

if.end76:                                         ; preds = %if.end69
  ret void

eh.resume:                                        ; preds = %lpad74, %lpad67, %lpad52, %lpad43, %lpad29, %lpad
  %exception73.sink = phi ptr [ %exception73, %lpad74 ], [ %exception66, %lpad67 ], [ %exception51, %lpad52 ], [ %exception42, %lpad43 ], [ %exception28, %lpad29 ], [ %exception, %lpad ]
  %.pn = phi { ptr, i32 } [ %16, %lpad74 ], [ %13, %lpad67 ], [ %12, %lpad52 ], [ %11, %lpad43 ], [ %6, %lpad29 ], [ %2, %lpad ]
  tail call void @__cxa_free_exception(ptr %exception73.sink) #17
  resume { ptr, i32 } %.pn
}